; ModuleID = '60/713.c'
source_filename = "60/713.c"
target datalayout = "e-m:e-p270:32:32-p271:32:32-p272:64:64-i64:64-f80:128-n8:16:32:64-S128"
target triple = "x86_64-pc-linux-gnu"

@.str = private unnamed_addr constant [3 x i8] c"%d\00", align 1
@.str.1 = private unnamed_addr constant [7 x i8] c"%d %d\0A\00", align 1
@.str.2 = private unnamed_addr constant [7 x i8] c"empty\0A\00", align 1

; Function Attrs: noinline nounwind uwtable
define dso_local i32 @main() #0 {
  %1 = alloca i32, align 4
  %2 = alloca i32, align 4
  %3 = alloca i32, align 4
  %4 = alloca i32, align 4
  %5 = alloca i32, align 4
  %6 = alloca i32, align 4
  %7 = alloca i32, align 4
  %8 = alloca i32, align 4
  store i32 0, i32* %1, align 4
  store i32 3, i32* %6, align 4
  store i32 0, i32* %8, align 4
  %9 = call i32 (i8*, ...) @__isoc99_scanf(i8* getelementptr inbounds ([3 x i8], [3 x i8]* @.str, i64 0, i64 0), i32* %2)
  store i32 2, i32* %3, align 4
  br label %10

10:                                               ; preds = %48, %0
  %11 = load i32, i32* %3, align 4
  %12 = load i32, i32* %2, align 4
  %13 = icmp sle i32 %11, %12
  br i1 %13, label %14, label %51

14:                                               ; preds = %10
  store i32 0, i32* %7, align 4
  store i32 2, i32* %4, align 4
  br label %15

15:                                               ; preds = %29, %14
  %16 = load i32, i32* %4, align 4
  %17 = sitofp i32 %16 to double
  %18 = load i32, i32* %3, align 4
  %19 = sitofp i32 %18 to double
  %20 = call double @sqrt(double %19) #3
  %21 = fcmp ole double %17, %20
  br i1 %21, label %22, label %32

22:                                               ; preds = %15
  %23 = load i32, i32* %3, align 4
  %24 = load i32, i32* %4, align 4
  %25 = srem i32 %23, %24
  %26 = icmp eq i32 %25, 0
  br i1 %26, label %27, label %28

27:                                               ; preds = %22
  store i32 1, i32* %7, align 4
  br label %28

28:                                               ; preds = %27, %22
  br label %29

29:                                               ; preds = %28
  %30 = load i32, i32* %4, align 4
  %31 = add nsw i32 %30, 1
  store i32 %31, i32* %4, align 4
  br label %15

32:                                               ; preds = %15
  %33 = load i32, i32* %7, align 4
  %34 = icmp eq i32 %33, 0
  br i1 %34, label %35, label %47

35:                                               ; preds = %32
  %36 = load i32, i32* %6, align 4
  store i32 %36, i32* %5, align 4
  %37 = load i32, i32* %3, align 4
  store i32 %37, i32* %6, align 4
  %38 = load i32, i32* %6, align 4
  %39 = load i32, i32* %5, align 4
  %40 = sub nsw i32 %38, %39
  %41 = icmp eq i32 %40, 2
  br i1 %41, label %42, label %46

42:                                               ; preds = %35
  %43 = load i32, i32* %5, align 4
  %44 = load i32, i32* %6, align 4
  %45 = call i32 (i8*, ...) @printf(i8* getelementptr inbounds ([7 x i8], [7 x i8]* @.str.1, i64 0, i64 0), i32 %43, i32 %44)
  store i32 1, i32* %8, align 4
  br label %46

46:                                               ; preds = %42, %35
  br label %47

47:                                               ; preds = %46, %32
  br label %48

48:                                               ; preds = %47
  %49 = load i32, i32* %3, align 4
  %50 = add nsw i32 %49, 1
  store i32 %50, i32* %3, align 4
  br label %10

51:                                               ; preds = %10
  %52 = load i32, i32* %8, align 4
  %53 = icmp eq i32 %52, 0
  br i1 %53, label %54, label %56

54:                                               ; preds = %51
  %55 = call i32 (i8*, ...) @printf(i8* getelementptr inbounds ([7 x i8], [7 x i8]* @.str.2, i64 0, i64 0))
  br label %56

56:                                               ; preds = %54, %51
  ret i32 0
}

declare dso_local i32 @__isoc99_scanf(i8*, ...) #1

; Function Attrs: nounwind
declare dso_local double @sqrt(double) #2

declare dso_local i32 @printf(i8*, ...) #1


!llvm.module.flags = !{!0}
!llvm.ident = !{!1}

!0 = !{i32 1, !"wchar_size", i32 4}
!1 = !{!"clang version 10.0.0-4ubuntu1 "}
