; ModuleID = 'source-C-CXX/59/713.c'
source_filename = "source-C-CXX/59/713.c"
target datalayout = "e-m:e-p270:32:32-p271:32:32-p272:64:64-i64:64-f80:128-n8:16:32:64-S128"
target triple = "x86_64-pc-linux-gnu"

@.str = private unnamed_addr constant [3 x i8] c"%d\00", align 1
@.str.1 = private unnamed_addr constant [7 x i8] c"%d %d\0A\00", align 1
@str = private unnamed_addr constant [6 x i8] c"empty\00", align 1

; Function Attrs: nofree nounwind sspstrong uwtable
define dso_local i32 @main() local_unnamed_addr #0 {
  %1 = alloca i32, align 4
  %2 = bitcast i32* %1 to i8*
  call void @llvm.lifetime.start.p0i8(i64 4, i8* nonnull %2) #5
  %3 = call i32 (i8*, ...) @__isoc99_scanf(i8* getelementptr inbounds ([3 x i8], [3 x i8]* @.str, i64 0, i64 0), i32* nonnull %1)
  %4 = load i32, i32* %1, align 4, !tbaa !5
  %5 = icmp slt i32 %4, 2
  br i1 %5, label %38, label %6

6:                                                ; preds = %0, %30
  %7 = phi i32 [ %32, %30 ], [ 0, %0 ]
  %8 = phi i32 [ %31, %30 ], [ 3, %0 ]
  %9 = phi i32 [ %33, %30 ], [ 2, %0 ]
  %10 = sitofp i32 %9 to double
  %11 = call double @sqrt(double %10) #5
  %12 = fcmp ult double %11, 2.000000e+00
  br i1 %12, label %25, label %13

13:                                               ; preds = %6, %13
  %14 = phi i32 [ %18, %13 ], [ 0, %6 ]
  %15 = phi i32 [ %19, %13 ], [ 2, %6 ]
  %16 = urem i32 %9, %15
  %17 = icmp eq i32 %16, 0
  %18 = select i1 %17, i32 1, i32 %14
  %19 = add nuw nsw i32 %15, 1
  %20 = sitofp i32 %19 to double
  %21 = call double @sqrt(double %10) #5
  %22 = fcmp ult double %21, %20
  br i1 %22, label %23, label %13, !llvm.loop !9

23:                                               ; preds = %13
  %24 = icmp eq i32 %18, 0
  br i1 %24, label %25, label %30

25:                                               ; preds = %6, %23
  %26 = sub nsw i32 %9, %8
  %27 = icmp eq i32 %26, 2
  br i1 %27, label %28, label %30

28:                                               ; preds = %25
  %29 = call i32 (i8*, ...) @printf(i8* nonnull dereferenceable(1) getelementptr inbounds ([7 x i8], [7 x i8]* @.str.1, i64 0, i64 0), i32 %8, i32 %9)
  br label %30

30:                                               ; preds = %23, %28, %25
  %31 = phi i32 [ %9, %28 ], [ %9, %25 ], [ %8, %23 ]
  %32 = phi i32 [ 1, %28 ], [ %7, %25 ], [ %7, %23 ]
  %33 = add nuw nsw i32 %9, 1
  %34 = load i32, i32* %1, align 4, !tbaa !5
  %35 = icmp slt i32 %9, %34
  br i1 %35, label %6, label %36, !llvm.loop !11

36:                                               ; preds = %30
  %37 = icmp eq i32 %32, 0
  br i1 %37, label %38, label %40

38:                                               ; preds = %0, %36
  %39 = call i32 @puts(i8* nonnull dereferenceable(1) getelementptr inbounds ([6 x i8], [6 x i8]* @str, i64 0, i64 0))
  br label %40

40:                                               ; preds = %38, %36
  call void @llvm.lifetime.end.p0i8(i64 4, i8* nonnull %2) #5
  ret i32 0
}

; Function Attrs: argmemonly mustprogress nofree nosync nounwind willreturn
declare void @llvm.lifetime.start.p0i8(i64 immarg, i8* nocapture) #1

; Function Attrs: nofree nounwind
declare noundef i32 @__isoc99_scanf(i8* nocapture noundef readonly, ...) local_unnamed_addr #2

; Function Attrs: mustprogress nofree nounwind willreturn
declare double @sqrt(double) local_unnamed_addr #3

; Function Attrs: nofree nounwind
declare noundef i32 @printf(i8* nocapture noundef readonly, ...) local_unnamed_addr #2

; Function Attrs: argmemonly mustprogress nofree nosync nounwind willreturn
declare void @llvm.lifetime.end.p0i8(i64 immarg, i8* nocapture) #1

; Function Attrs: nofree nounwind
declare noundef i32 @puts(i8* nocapture noundef readonly) local_unnamed_addr #4


!llvm.module.flags = !{!0, !1, !2, !3}
!llvm.ident = !{!4}

!0 = !{i32 1, !"wchar_size", i32 4}
!1 = !{i32 7, !"PIC Level", i32 2}
!2 = !{i32 7, !"PIE Level", i32 2}
!3 = !{i32 7, !"uwtable", i32 1}
!4 = !{!"clang version 13.0.0"}
!5 = !{!6, !6, i64 0}
!6 = !{!"int", !7, i64 0}
!7 = !{!"omnipotent char", !8, i64 0}
!8 = !{!"Simple C/C++ TBAA"}
!9 = distinct !{!9, !10}
!10 = !{!"llvm.loop.mustprogress"}
!11 = distinct !{!11, !10}
